#include <math.h>
#include <stdio.h>
#include <stdlib.h>
#include <string.h>

int main (){
int j,q,k,x,m,l;
char a[30000];
int b[10000];
gets(a);
j=0;
q=0;
l=strlen(a);
for (int i=0;i<l;i++){
	if(a[i]==' '){
			b[j]=i-q;
			k=0;
			for (int m=i+1;m<l;m++){
				if(a[m]==' '){k++;}
				else{break;}}			
	
	i=i+k;
	q=i+1;
    j++;   
	}
}
for (int i=0;i<j;i++){printf("%d%c",b[i],',');}
printf("%d",l-q);
return 0;
}